target datalayout = "e-m:e-p270:32:32-p271:32:32-p272:64:64-i64:64-i128:128-f80:128-n8:16:32:64-S128"
target triple = "x86_64-pc-linux-gnu"

; Function Attrs: nounwind uwtable
define internal i32 @md_free(ptr noundef %0) #0 {
  %2 = alloca i32, align 4
  %3 = alloca ptr, align 8
  store ptr %0, ptr %3, align 8, !tbaa !3
  %4 = load ptr, ptr %3, align 8, !tbaa !3
  %5 = icmp eq ptr %4, null
  br i1 %5, label %6, label %7

6:                                                ; preds = %1
  store i32 0, ptr %2, align 4
  br label %12

7:                                                ; preds = %1
  %8 = load ptr, ptr %3, align 8, !tbaa !3
  %9 = call ptr @BIO_get_data(ptr noundef %8)
  call void @EVP_MD_CTX_free(ptr noundef %9)
  %10 = load ptr, ptr %3, align 8, !tbaa !3
  call void @BIO_set_data(ptr noundef %10, ptr noundef null)
  %11 = load ptr, ptr %3, align 8, !tbaa !3
  call void @BIO_set_init(ptr noundef %11, i32 noundef 0)
  store i32 1, ptr %2, align 4
  br label %12

12:                                               ; preds = %7, %6
  %13 = load i32, ptr %2, align 4
  ret i32 %13
}